target datalayout = "e-m:e-p270:32:32-p271:32:32-p272:64:64-i64:64-i128:128-f80:128-n8:16:32:64-S128"
target triple = "x86_64-pc-linux-gnu"

%struct.cgroup_limits_t = type { ptr, i32, ptr, ptr, i64, i64, i8, %struct.gres_device_id_t, i64, i64, i64, i64 }
%struct.gres_device_id_t = type { i32, i32, i32 }

; Function Attrs: nounwind uwtable
define dso_local void @cgroup_init_limits(ptr noundef %0) #0 {
  %2 = alloca ptr, align 8
  store ptr %0, ptr %2, align 8
  %3 = load ptr, ptr %2, align 8
  %4 = icmp ne ptr %3, null
  br i1 %4, label %6, label %5

5:                                                ; preds = %1
  br label %27

6:                                                ; preds = %1
  %7 = load ptr, ptr %2, align 8
  call void @llvm.memset.p0.i64(ptr align 8 %7, i8 0, i64 96, i1 false)
  %8 = load ptr, ptr %2, align 8
  %9 = getelementptr inbounds nuw %struct.cgroup_limits_t, ptr %8, i32 0, i32 1
  store i32 -2, ptr %9, align 8
  %10 = load ptr, ptr %2, align 8
  %11 = getelementptr inbounds nuw %struct.cgroup_limits_t, ptr %10, i32 0, i32 7
  %12 = getelementptr inbounds nuw %struct.gres_device_id_t, ptr %11, i32 0, i32 2
  store i32 0, ptr %12, align 4
  %13 = load ptr, ptr %2, align 8
  %14 = getelementptr inbounds nuw %struct.cgroup_limits_t, ptr %13, i32 0, i32 7
  %15 = getelementptr inbounds nuw %struct.gres_device_id_t, ptr %14, i32 0, i32 0
  store i32 -2, ptr %15, align 4
  %16 = load ptr, ptr %2, align 8
  %17 = getelementptr inbounds nuw %struct.cgroup_limits_t, ptr %16, i32 0, i32 7
  %18 = getelementptr inbounds nuw %struct.gres_device_id_t, ptr %17, i32 0, i32 1
  store i32 -2, ptr %18, align 4
  %19 = load ptr, ptr %2, align 8
  %20 = getelementptr inbounds nuw %struct.cgroup_limits_t, ptr %19, i32 0, i32 8
  store i64 -2, ptr %20, align 8
  %21 = load ptr, ptr %2, align 8
  %22 = getelementptr inbounds nuw %struct.cgroup_limits_t, ptr %21, i32 0, i32 9
  store i64 -2, ptr %22, align 8
  %23 = load ptr, ptr %2, align 8
  %24 = getelementptr inbounds nuw %struct.cgroup_limits_t, ptr %23, i32 0, i32 10
  store i64 -2, ptr %24, align 8
  %25 = load ptr, ptr %2, align 8
  %26 = getelementptr inbounds nuw %struct.cgroup_limits_t, ptr %25, i32 0, i32 11
  store i64 -2, ptr %26, align 8
  br label %27

27:                                               ; preds = %6, %5
  ret void
}