; Function Attrs: mustprogress nofree norecurse nosync nounwind willreturn memory(argmem: write) uwtable
define dso_local void @cgroup_init_limits(ptr noundef writeonly captures(address_is_null) %0) local_unnamed_addr #6 {
  %.not = icmp eq ptr %0, null
  br i1 %.not, label %11, label %2

2:                                                ; preds = %1
  tail call void @llvm.memset.p0.i64(ptr noundef nonnull align 8 dereferenceable(96) %0, i8 0, i64 56, i1 false)
  %3 = getelementptr inbounds nuw i8, ptr %0, i64 8
  store i32 -2, ptr %3, align 8
  %4 = getelementptr inbounds nuw i8, ptr %0, i64 52
  %5 = getelementptr inbounds nuw i8, ptr %0, i64 60
  store i32 0, ptr %5, align 4
  store i32 -2, ptr %4, align 4
  %6 = getelementptr inbounds nuw i8, ptr %0, i64 56
  store i32 -2, ptr %6, align 4
  %7 = getelementptr inbounds nuw i8, ptr %0, i64 64
  store i64 -2, ptr %7, align 8
  %8 = getelementptr inbounds nuw i8, ptr %0, i64 72
  store i64 -2, ptr %8, align 8
  %9 = getelementptr inbounds nuw i8, ptr %0, i64 80
  store i64 -2, ptr %9, align 8
  %10 = getelementptr inbounds nuw i8, ptr %0, i64 88
  store i64 -2, ptr %10, align 8
  br label %11

11:                                               ; preds = %1, %2
  ret void
}